(dp1
S'files'
p2
(dp3
S'portfolio___init__'
p4
(dp5
S'index'
p6
(dp7
S'html_filename'
p8
S'portfolio___init__.html'
p9
sS'name'
p10
S'portfolio/__init__'
p11
sS'nums'
p12
ccopy_reg
_reconstructor
p13
(ccoverage.results
Numbers
p14
c__builtin__
object
p15
NtRp16
(dp17
S'n_files'
p18
I1
sS'n_branches'
p19
I0
sS'n_statements'
p20
I0
sS'n_excluded'
p21
I0
sS'n_partial_branches'
p22
I0
sS'n_missing'
p23
I0
sS'n_missing_branches'
p24
I0
sbssS'hash'
p25
S'\xca\xf5\x9f\x7f\x88\xdfa\x831|T\x1d\xbc}\xa5v'
p26
ssS'aco_portfolio___init__'
p27
(dp28
g6
(dp29
g8
S'aco_portfolio___init__.html'
p30
sg10
S'aco_portfolio/__init__'
p31
sg12
g13
(g14
g15
NtRp32
(dp33
g18
I1
sg19
I0
sg20
I0
sg21
I0
sg22
I0
sg23
I0
sg24
I0
sbssg25
S'\xca\xf5\x9f\x7f\x88\xdfa\x831|T\x1d\xbc}\xa5v'
p34
ssS'manage'
p35
(dp36
g6
(dp37
g8
S'manage.html'
p38
sg10
g35
sg12
g13
(g14
g15
NtRp39
(dp40
g18
I1
sg19
I0
sg20
I6
sg21
I0
sg22
I0
sg23
I0
sg24
I0
sbssg25
S')G\xfc\xdbt\nz\xe7\x03\x8aM\xa79{x\x97'
p41
ssS'solution_classes_min_max'
p42
(dp43
g6
(dp44
g8
S'solution_classes_min_max.html'
p45
sg10
S'solution/classes/min_max'
p46
sg12
g13
(g14
g15
NtRp47
(dp48
g18
I1
sg19
I0
sg20
I11
sg21
I0
sg22
I0
sg23
I11
sg24
I0
sbssg25
S'@\x0f*vq\x92\x0f\x82!M+\xe3\x10A\x7f\x0e'
p49
ssS'solution_tests'
p50
(dp51
g6
(dp52
g8
S'solution_tests.html'
p53
sg10
S'solution/tests'
p54
sg12
g13
(g14
g15
NtRp55
(dp56
g18
I1
sg19
I0
sg20
I32
sg21
I0
sg22
I0
sg23
I0
sg24
I0
sbssg25
S'\xb9\xfc\xae\xeb\xd4\x04\x91\x1b8\x1a\xe5\xf9\xab\xc6\xe7\xf4'
p57
ssS'solution_classes_aco'
p58
(dp59
g6
(dp60
g8
S'solution_classes_aco.html'
p61
sg10
S'solution/classes/aco'
p62
sg12
g13
(g14
g15
NtRp63
(dp64
g18
I1
sg19
I0
sg20
I15
sg21
I0
sg22
I0
sg23
I15
sg24
I0
sbssg25
S'\xfb\x1e\x92\xd6\x1e\xc1A:K\x8f\xdeoN\xc3\xed\xc0'
p65
ssS'solution_classes_TimeWindow'
p66
(dp67
g6
(dp68
g8
S'solution_classes_TimeWindow.html'
p69
sg10
S'solution/classes/TimeWindow'
p70
sg12
g13
(g14
g15
NtRp71
(dp72
g18
I1
sg19
I0
sg20
I0
sg21
I0
sg22
I0
sg23
I0
sg24
I0
sbssg25
S'\xe5P\x11)^\xf4>1D.\x0e\x0b\xa1\xf8[+'
p73
ssS'portfolio_models'
p74
(dp75
g6
(dp76
g8
S'portfolio_models.html'
p77
sg10
S'portfolio/models'
p78
sg12
g13
(g14
g15
NtRp79
(dp80
g18
I1
sg19
I0
sg20
I13
sg21
I0
sg22
I0
sg23
I0
sg24
I0
sbssg25
S'\x99*)\xf5\xcf\t\x8b\xa5xO\xb8\xdeH\x18\x9b\xe7'
p81
ssS'portfolio_views'
p82
(dp83
g6
(dp84
g8
S'portfolio_views.html'
p85
sg10
S'portfolio/views'
p86
sg12
g13
(g14
g15
NtRp87
(dp88
g18
I1
sg19
I0
sg20
I9
sg21
I0
sg22
I0
sg23
I9
sg24
I0
sbssg25
S'\xb7\x9a\x1a\x81 \xfb\xe9\xb5\xb8\xe9\x0b@\xdb\xff\xce\x86'
p89
ssS'aco_portfolio_urls'
p90
(dp91
g6
(dp92
g8
S'aco_portfolio_urls.html'
p93
sg10
S'aco_portfolio/urls'
p94
sg12
g13
(g14
g15
NtRp95
(dp96
g18
I1
sg19
I0
sg20
I3
sg21
I0
sg22
I0
sg23
I3
sg24
I0
sbssg25
S'PS\xc5v\xfec\xf6\x87\xca\x9dA<\x18\xa9(\xee'
p97
ssS'solution_classes_solution'
p98
(dp99
g6
(dp100
g8
S'solution_classes_solution.html'
p101
sg10
S'solution/classes/solution'
p102
sg12
g13
(g14
g15
NtRp103
(dp104
g18
I1
sg19
I0
sg20
I0
sg21
I0
sg22
I0
sg23
I0
sg24
I0
sbssg25
S'\xe5P\x11)^\xf4>1D.\x0e\x0b\xa1\xf8[+'
p105
ssS'solution_admin'
p106
(dp107
g6
(dp108
g8
S'solution_admin.html'
p109
sg10
S'solution/admin'
p110
sg12
g13
(g14
g15
NtRp111
(dp112
g18
I1
sg19
I0
sg20
I1
sg21
I0
sg22
I0
sg23
I0
sg24
I0
sbssg25
S'\xd4\xe9\x8c\x82\x9c\xa2eU\x87h\x8b\xbe!-\xe2\xdf'
p113
ssS'solution___init__'
p114
(dp115
g6
(dp116
g8
S'solution___init__.html'
p117
sg10
S'solution/__init__'
p118
sg12
g13
(g14
g15
NtRp119
(dp120
g18
I1
sg19
I0
sg20
I0
sg21
I0
sg22
I0
sg23
I0
sg24
I0
sbssg25
S'\xca\xf5\x9f\x7f\x88\xdfa\x831|T\x1d\xbc}\xa5v'
p121
ssS'portfolio_tests'
p122
(dp123
g6
(dp124
g8
S'portfolio_tests.html'
p125
sg10
S'portfolio/tests'
p126
sg12
g13
(g14
g15
NtRp127
(dp128
g18
I1
sg19
I0
sg20
I1
sg21
I0
sg22
I0
sg23
I1
sg24
I0
sbssg25
S']\x1b\xa4\x10\x8a\xf9.\x84\xd5\xb1b>D\xf6\xa9\xc5'
p129
ssS'portfolio_admin'
p130
(dp131
g6
(dp132
g8
S'portfolio_admin.html'
p133
sg10
S'portfolio/admin'
p134
sg12
g13
(g14
g15
NtRp135
(dp136
g18
I1
sg19
I0
sg20
I1
sg21
I0
sg22
I0
sg23
I0
sg24
I0
sbssg25
S'\xd4\xe9\x8c\x82\x9c\xa2eU\x87h\x8b\xbe!-\xe2\xdf'
p137
ssS'solution_classes_graph_wrapper'
p138
(dp139
g6
(dp140
g8
S'solution_classes_graph_wrapper.html'
p141
sg10
S'solution/classes/graph_wrapper'
p142
sg12
g13
(g14
g15
NtRp143
(dp144
g18
I1
sg19
I0
sg20
I18
sg21
I0
sg22
I0
sg23
I0
sg24
I0
sbssg25
S"\x19\xbf\x9f'R7Y\xaa\x1b\xc2\x02\x1a\x03k\x01\xec"
p145
ssS'aco_portfolio_views'
p146
(dp147
g6
(dp148
S'html_filename'
p149
S'aco_portfolio_views.html'
p150
sS'name'
p151
S'aco_portfolio/views'
p152
sS'nums'
p153
g13
(g14
g15
NtRp154
(dp155
g18
I1
sg19
I0
sg20
I10
sg21
I0
sg22
I0
sg23
I10
sg24
I0
sbssg25
S'7\x1b{\xae\xd7\xb3\xeaQo\x1cm\xc6#\x15C\xa4'
p156
ssS'solution_models'
p157
(dp158
g6
(dp159
g8
S'solution_models.html'
p160
sg10
S'solution/models'
p161
sg12
g13
(g14
g15
NtRp162
(dp163
g18
I1
sg19
I0
sg20
I1
sg21
I0
sg22
I0
sg23
I0
sg24
I0
sbssg25
S'\xd5M\xc7\x8c\x14P\xcc\xf0D\xe4\x95\xf6\x03`\xf1a'
p164
ssS'solution_classes_capital'
p165
(dp166
g6
(dp167
g8
S'solution_classes_capital.html'
p168
sg10
S'solution/classes/capital'
p169
sg12
g13
(g14
g15
NtRp170
(dp171
g18
I1
sg19
I0
sg20
I0
sg21
I0
sg22
I0
sg23
I0
sg24
I0
sbssg25
S'\xe5P\x11)^\xf4>1D.\x0e\x0b\xa1\xf8[+'
p172
ssS'solution_migrations___init__'
p173
(dp174
g6
(dp175
g8
S'solution_migrations___init__.html'
p176
sg10
S'solution/migrations/__init__'
p177
sg12
g13
(g14
g15
NtRp178
(dp179
g18
I1
sg19
I0
sg20
I0
sg21
I0
sg22
I0
sg23
I0
sg24
I0
sbssg25
S'\xca\xf5\x9f\x7f\x88\xdfa\x831|T\x1d\xbc}\xa5v'
p180
ssS'solution_classes___init__'
p181
(dp182
g6
(dp183
g8
S'solution_classes___init__.html'
p184
sg10
S'solution/classes/__init__'
p185
sg12
g13
(g14
g15
NtRp186
(dp187
g18
I1
sg19
I0
sg20
I0
sg21
I0
sg22
I0
sg23
I0
sg24
I0
sbssg25
S'\xca\xf5\x9f\x7f\x88\xdfa\x831|T\x1d\xbc}\xa5v'
p188
ssS'solution_classes_ant'
p189
(dp190
g6
(dp191
g8
S'solution_classes_ant.html'
p192
sg10
S'solution/classes/ant'
p193
sg12
g13
(g14
g15
NtRp194
(dp195
g18
I1
sg19
I0
sg20
I0
sg21
I0
sg22
I0
sg23
I0
sg24
I0
sbssg25
S'\xe5P\x11)^\xf4>1D.\x0e\x0b\xa1\xf8[+'
p196
ssS'aco_portfolio_settings'
p197
(dp198
g6
(dp199
g8
S'aco_portfolio_settings.html'
p200
sg10
S'aco_portfolio/settings'
p201
sg12
g13
(g14
g15
NtRp202
(dp203
g18
I1
sg19
I0
sg20
I17
sg21
I0
sg22
I0
sg23
I0
sg24
I0
sbssg25
S'\x1bv\xe1\xc2!\x82\x1c\xef;\x05\x98\x91\xa9\xe4\x13\x83'
p204
ssS'solution_views'
p205
(dp206
g6
(dp207
g8
S'solution_views.html'
p208
sg10
S'solution/views'
p209
sg12
g13
(g14
g15
NtRp210
(dp211
g18
I1
sg19
I0
sg20
I14
sg21
I0
sg22
I0
sg23
I14
sg24
I0
sbssg25
S"\x8f\x9cgcSR\xc0A\xe6\xe0\xb9\xed\xce5;'"
p212
ssS'aco_portfolio_wsgi'
p213
(dp214
g6
(dp215
g8
S'aco_portfolio_wsgi.html'
p216
sg10
S'aco_portfolio/wsgi'
p217
sg12
g13
(g14
g15
NtRp218
(dp219
g18
I1
sg19
I0
sg20
I4
sg21
I0
sg22
I0
sg23
I4
sg24
I0
sbssg25
S'\x9b\xa8a|\x18[?\xaf\x8a\xc7\xce\x17\xb8\x9e8u'
p220
sssS'version'
p221
S'3.7.1'
p222
sS'settings'
p223
S'\x98\xa8x\xfe"r\xb5K\x98\xb1N\\\x99\x9e\xf3\xe5'
p224
sS'format'
p225
I1
s.